; ModuleID = '12/962.c'
source_filename = "12/962.c"
target datalayout = "e-m:e-p270:32:32-p271:32:32-p272:64:64-i64:64-f80:128-n8:16:32:64-S128"
target triple = "x86_64-pc-linux-gnu"

@.str = private unnamed_addr constant [3 x i8] c"%d\00", align 1
@.str.1 = private unnamed_addr constant [4 x i8] c"%d\0A\00", align 1

; Function Attrs: noinline nounwind uwtable
define dso_local i32 @main() #0 {
  %1 = alloca i32, align 4
  %2 = alloca i32, align 4
  %3 = alloca i32, align 4
  %4 = alloca i32, align 4
  %5 = alloca i32, align 4
  %6 = alloca [100 x [100 x i32]], align 16
  %7 = alloca [100 x i32], align 16
  store i32 0, i32* %1, align 4
  store i32 0, i32* %2, align 4
  br label %8

8:                                                ; preds = %15, %0
  %9 = load i32, i32* %2, align 4
  %10 = icmp slt i32 %9, 100
  br i1 %10, label %11, label %18

11:                                               ; preds = %8
  %12 = load i32, i32* %2, align 4
  %13 = sext i32 %12 to i64
  %14 = getelementptr inbounds [100 x i32], [100 x i32]* %7, i64 0, i64 %13
  store i32 0, i32* %14, align 4
  br label %15

15:                                               ; preds = %11
  %16 = load i32, i32* %2, align 4
  %17 = add nsw i32 %16, 1
  store i32 %17, i32* %2, align 4
  br label %8

18:                                               ; preds = %8
  store i32 0, i32* %2, align 4
  br label %19

19:                                               ; preds = %65, %18
  %20 = load i32, i32* %2, align 4
  %21 = icmp slt i32 %20, 100
  br i1 %21, label %22, label %68

22:                                               ; preds = %19
  store i32 0, i32* %3, align 4
  br label %23

23:                                               ; preds = %52, %22
  %24 = load i32, i32* %3, align 4
  %25 = icmp slt i32 %24, 100
  br i1 %25, label %26, label %55

26:                                               ; preds = %23
  %27 = load i32, i32* %2, align 4
  %28 = sext i32 %27 to i64
  %29 = getelementptr inbounds [100 x [100 x i32]], [100 x [100 x i32]]* %6, i64 0, i64 %28
  %30 = load i32, i32* %3, align 4
  %31 = sext i32 %30 to i64
  %32 = getelementptr inbounds [100 x i32], [100 x i32]* %29, i64 0, i64 %31
  %33 = call i32 (i8*, ...) @__isoc99_scanf(i8* getelementptr inbounds ([3 x i8], [3 x i8]* @.str, i64 0, i64 0), i32* %32)
  %34 = load i32, i32* %2, align 4
  %35 = sext i32 %34 to i64
  %36 = getelementptr inbounds [100 x [100 x i32]], [100 x [100 x i32]]* %6, i64 0, i64 %35
  %37 = load i32, i32* %3, align 4
  %38 = sext i32 %37 to i64
  %39 = getelementptr inbounds [100 x i32], [100 x i32]* %36, i64 0, i64 %38
  %40 = load i32, i32* %39, align 4
  %41 = icmp eq i32 %40, 0
  br i1 %41, label %42, label %43

42:                                               ; preds = %26
  br label %55

43:                                               ; preds = %26
  %44 = load i32, i32* %2, align 4
  %45 = sext i32 %44 to i64
  %46 = getelementptr inbounds [100 x [100 x i32]], [100 x [100 x i32]]* %6, i64 0, i64 %45
  %47 = getelementptr inbounds [100 x i32], [100 x i32]* %46, i64 0, i64 0
  %48 = load i32, i32* %47, align 16
  %49 = icmp eq i32 %48, -1
  br i1 %49, label %50, label %51

50:                                               ; preds = %43
  br label %55

51:                                               ; preds = %43
  br label %52

52:                                               ; preds = %51
  %53 = load i32, i32* %3, align 4
  %54 = add nsw i32 %53, 1
  store i32 %54, i32* %3, align 4
  br label %23

55:                                               ; preds = %50, %42, %23
  %56 = load i32, i32* %2, align 4
  %57 = sext i32 %56 to i64
  %58 = getelementptr inbounds [100 x [100 x i32]], [100 x [100 x i32]]* %6, i64 0, i64 %57
  %59 = getelementptr inbounds [100 x i32], [100 x i32]* %58, i64 0, i64 0
  %60 = load i32, i32* %59, align 16
  %61 = icmp eq i32 %60, -1
  br i1 %61, label %62, label %63

62:                                               ; preds = %55
  br label %68

63:                                               ; preds = %55
  %64 = load i32, i32* %2, align 4
  store i32 %64, i32* %4, align 4
  br label %65

65:                                               ; preds = %63
  %66 = load i32, i32* %2, align 4
  %67 = add nsw i32 %66, 1
  store i32 %67, i32* %2, align 4
  br label %19

68:                                               ; preds = %62, %19
  store i32 0, i32* %2, align 4
  br label %69

69:                                               ; preds = %131, %68
  %70 = load i32, i32* %2, align 4
  %71 = load i32, i32* %4, align 4
  %72 = icmp sle i32 %70, %71
  br i1 %72, label %73, label %134

73:                                               ; preds = %69
  store i32 0, i32* %5, align 4
  br label %74

74:                                               ; preds = %127, %73
  %75 = load i32, i32* %5, align 4
  %76 = icmp slt i32 %75, 100
  br i1 %76, label %77, label %130

77:                                               ; preds = %74
  store i32 0, i32* %3, align 4
  br label %78

78:                                               ; preds = %123, %77
  %79 = load i32, i32* %3, align 4
  %80 = icmp slt i32 %79, 100
  br i1 %80, label %81, label %126

81:                                               ; preds = %78
  %82 = load i32, i32* %2, align 4
  %83 = sext i32 %82 to i64
  %84 = getelementptr inbounds [100 x [100 x i32]], [100 x [100 x i32]]* %6, i64 0, i64 %83
  %85 = load i32, i32* %5, align 4
  %86 = sext i32 %85 to i64
  %87 = getelementptr inbounds [100 x i32], [100 x i32]* %84, i64 0, i64 %86
  %88 = load i32, i32* %87, align 4
  %89 = load i32, i32* %2, align 4
  %90 = sext i32 %89 to i64
  %91 = getelementptr inbounds [100 x [100 x i32]], [100 x [100 x i32]]* %6, i64 0, i64 %90
  %92 = load i32, i32* %3, align 4
  %93 = sext i32 %92 to i64
  %94 = getelementptr inbounds [100 x i32], [100 x i32]* %91, i64 0, i64 %93
  %95 = load i32, i32* %94, align 4
  %96 = mul nsw i32 2, %95
  %97 = icmp eq i32 %88, %96
  br i1 %97, label %98, label %122

98:                                               ; preds = %81
  %99 = load i32, i32* %2, align 4
  %100 = sext i32 %99 to i64
  %101 = getelementptr inbounds [100 x [100 x i32]], [100 x [100 x i32]]* %6, i64 0, i64 %100
  %102 = load i32, i32* %5, align 4
  %103 = sext i32 %102 to i64
  %104 = getelementptr inbounds [100 x i32], [100 x i32]* %101, i64 0, i64 %103
  %105 = load i32, i32* %104, align 4
  %106 = icmp ne i32 %105, 0
  br i1 %106, label %107, label %122

107:                                              ; preds = %98
  %108 = load i32, i32* %2, align 4
  %109 = sext i32 %108 to i64
  %110 = getelementptr inbounds [100 x [100 x i32]], [100 x [100 x i32]]* %6, i64 0, i64 %109
  %111 = load i32, i32* %3, align 4
  %112 = sext i32 %111 to i64
  %113 = getelementptr inbounds [100 x i32], [100 x i32]* %110, i64 0, i64 %112
  %114 = load i32, i32* %113, align 4
  %115 = icmp ne i32 %114, 0
  br i1 %115, label %116, label %122

116:                                              ; preds = %107
  %117 = load i32, i32* %2, align 4
  %118 = sext i32 %117 to i64
  %119 = getelementptr inbounds [100 x i32], [100 x i32]* %7, i64 0, i64 %118
  %120 = load i32, i32* %119, align 4
  %121 = add nsw i32 %120, 1
  store i32 %121, i32* %119, align 4
  br label %122

122:                                              ; preds = %116, %107, %98, %81
  br label %123

123:                                              ; preds = %122
  %124 = load i32, i32* %3, align 4
  %125 = add nsw i32 %124, 1
  store i32 %125, i32* %3, align 4
  br label %78

126:                                              ; preds = %78
  br label %127

127:                                              ; preds = %126
  %128 = load i32, i32* %5, align 4
  %129 = add nsw i32 %128, 1
  store i32 %129, i32* %5, align 4
  br label %74

130:                                              ; preds = %74
  br label %131

131:                                              ; preds = %130
  %132 = load i32, i32* %2, align 4
  %133 = add nsw i32 %132, 1
  store i32 %133, i32* %2, align 4
  br label %69

134:                                              ; preds = %69
  store i32 0, i32* %2, align 4
  br label %135

135:                                              ; preds = %145, %134
  %136 = load i32, i32* %2, align 4
  %137 = load i32, i32* %4, align 4
  %138 = icmp sle i32 %136, %137
  br i1 %138, label %139, label %148

139:                                              ; preds = %135
  %140 = load i32, i32* %2, align 4
  %141 = sext i32 %140 to i64
  %142 = getelementptr inbounds [100 x i32], [100 x i32]* %7, i64 0, i64 %141
  %143 = load i32, i32* %142, align 4
  %144 = call i32 (i8*, ...) @printf(i8* getelementptr inbounds ([4 x i8], [4 x i8]* @.str.1, i64 0, i64 0), i32 %143)
  br label %145

145:                                              ; preds = %139
  %146 = load i32, i32* %2, align 4
  %147 = add nsw i32 %146, 1
  store i32 %147, i32* %2, align 4
  br label %135

148:                                              ; preds = %135
  ret i32 0
}

declare dso_local i32 @__isoc99_scanf(i8*, ...) #1

declare dso_local i32 @printf(i8*, ...) #1


!llvm.module.flags = !{!0}
!llvm.ident = !{!1}

!0 = !{i32 1, !"wchar_size", i32 4}
!1 = !{!"clang version 10.0.0-4ubuntu1 "}
